#include <math.h>
#include <stdio.h>
#include <stdlib.h>
#include <string.h>

void main()
{
	int n,a,b,c,d;
    scanf("%d",&n);
    a=n%10;
    printf("%d",a);
    b=(n-a)/10;
    if(b!=0)
	{b=b%10;
       printf("%d",b);
       c=(n-10*b-a)/100;
       if(c!=0)
	   {
          c=c%10;
          printf("%d",c);
          d=(n-100*c-10*b-a)/1000;
          if(d!=0)
             printf("%d\n",d);
	   }
	}
}
