; ModuleID = '16/930.c'
source_filename = "16/930.c"
target datalayout = "e-m:e-p270:32:32-p271:32:32-p272:64:64-i64:64-f80:128-n8:16:32:64-S128"
target triple = "x86_64-pc-linux-gnu"

@.str = private unnamed_addr constant [3 x i8] c"%d\00", align 1
@.str.1 = private unnamed_addr constant [4 x i8] c"%d\0A\00", align 1

; Function Attrs: noinline nounwind uwtable
define dso_local void @main() #0 {
  %1 = alloca i32, align 4
  %2 = alloca i32, align 4
  %3 = alloca i32, align 4
  %4 = alloca i32, align 4
  %5 = alloca i32, align 4
  %6 = call i32 (i8*, ...) @__isoc99_scanf(i8* getelementptr inbounds ([3 x i8], [3 x i8]* @.str, i64 0, i64 0), i32* %1)
  %7 = load i32, i32* %1, align 4
  %8 = srem i32 %7, 10
  store i32 %8, i32* %2, align 4
  %9 = load i32, i32* %2, align 4
  %10 = call i32 (i8*, ...) @printf(i8* getelementptr inbounds ([3 x i8], [3 x i8]* @.str, i64 0, i64 0), i32 %9)
  %11 = load i32, i32* %1, align 4
  %12 = load i32, i32* %2, align 4
  %13 = sub nsw i32 %11, %12
  %14 = sdiv i32 %13, 10
  store i32 %14, i32* %3, align 4
  %15 = load i32, i32* %3, align 4
  %16 = icmp ne i32 %15, 0
  br i1 %16, label %17, label %53

17:                                               ; preds = %0
  %18 = load i32, i32* %3, align 4
  %19 = srem i32 %18, 10
  store i32 %19, i32* %3, align 4
  %20 = load i32, i32* %3, align 4
  %21 = call i32 (i8*, ...) @printf(i8* getelementptr inbounds ([3 x i8], [3 x i8]* @.str, i64 0, i64 0), i32 %20)
  %22 = load i32, i32* %1, align 4
  %23 = load i32, i32* %3, align 4
  %24 = mul nsw i32 10, %23
  %25 = sub nsw i32 %22, %24
  %26 = load i32, i32* %2, align 4
  %27 = sub nsw i32 %25, %26
  %28 = sdiv i32 %27, 100
  store i32 %28, i32* %4, align 4
  %29 = load i32, i32* %4, align 4
  %30 = icmp ne i32 %29, 0
  br i1 %30, label %31, label %52

31:                                               ; preds = %17
  %32 = load i32, i32* %4, align 4
  %33 = srem i32 %32, 10
  store i32 %33, i32* %4, align 4
  %34 = load i32, i32* %4, align 4
  %35 = call i32 (i8*, ...) @printf(i8* getelementptr inbounds ([3 x i8], [3 x i8]* @.str, i64 0, i64 0), i32 %34)
  %36 = load i32, i32* %1, align 4
  %37 = load i32, i32* %4, align 4
  %38 = mul nsw i32 100, %37
  %39 = sub nsw i32 %36, %38
  %40 = load i32, i32* %3, align 4
  %41 = mul nsw i32 10, %40
  %42 = sub nsw i32 %39, %41
  %43 = load i32, i32* %2, align 4
  %44 = sub nsw i32 %42, %43
  %45 = sdiv i32 %44, 1000
  store i32 %45, i32* %5, align 4
  %46 = load i32, i32* %5, align 4
  %47 = icmp ne i32 %46, 0
  br i1 %47, label %48, label %51

48:                                               ; preds = %31
  %49 = load i32, i32* %5, align 4
  %50 = call i32 (i8*, ...) @printf(i8* getelementptr inbounds ([4 x i8], [4 x i8]* @.str.1, i64 0, i64 0), i32 %49)
  br label %51

51:                                               ; preds = %48, %31
  br label %52

52:                                               ; preds = %51, %17
  br label %53

53:                                               ; preds = %52, %0
  ret void
}

declare dso_local i32 @__isoc99_scanf(i8*, ...) #1

declare dso_local i32 @printf(i8*, ...) #1


!llvm.module.flags = !{!0}
!llvm.ident = !{!1}

!0 = !{i32 1, !"wchar_size", i32 4}
!1 = !{!"clang version 10.0.0-4ubuntu1 "}
